; Function Attrs: nounwind uwtable
define internal range(i32 0, 2) i32 @xor_decapsulate(ptr noundef readonly captures(none) %0, ptr noundef writeonly captures(address_is_null) %1, ptr noundef writeonly captures(address_is_null) %2, ptr noundef readonly captures(none) %3, i64 noundef %4) #0 {
  %6 = icmp eq ptr %1, null
  br i1 %6, label %7, label %10

7:                                                ; preds = %5
  %8 = icmp eq ptr %2, null
  br i1 %8, label %39, label %9

9:                                                ; preds = %7
  store i64 32, ptr %2, align 8, !tbaa !47
  br label %39

10:                                               ; preds = %5
  %.not = icmp eq i64 %4, 32
  br i1 %.not, label %11, label %39

11:                                               ; preds = %10
  %12 = tail call noalias ptr @CRYPTO_zalloc(i64 noundef 88, ptr noundef nonnull @.str.2, i32 noundef 691) #16
  %13 = icmp eq ptr %12, null
  br i1 %13, label %xor_freekey.exit, label %14

14:                                               ; preds = %11
  %15 = getelementptr inbounds nuw i8, ptr %0, i64 16
  %16 = getelementptr inbounds nuw i8, ptr %12, i64 80
  store atomic i32 1, ptr %16 seq_cst, align 4, !tbaa !33
  %17 = getelementptr inbounds nuw i8, ptr %12, i64 32
  tail call void @llvm.memcpy.p0.p0.i64(ptr noundef nonnull align 8 dereferenceable(32) %17, ptr noundef nonnull align 1 dereferenceable(32) %3, i64 32, i1 false)
  %18 = load ptr, ptr %15, align 8, !tbaa !52
  %19 = tail call noalias ptr @CRYPTO_zalloc(i64 noundef 24, ptr noundef nonnull @.str.2, i32 noundef 467) #16
  %20 = icmp eq ptr %19, null
  br i1 %20, label %xor_derive.exit.thread37, label %21

21:                                               ; preds = %14
  %22 = getelementptr inbounds nuw i8, ptr %19, i64 16
  store ptr %18, ptr %22, align 8, !tbaa !52
  %23 = load ptr, ptr %0, align 8, !tbaa !54
  %24 = icmp eq ptr %23, null
  br i1 %24, label %xor_derive.exit.thread37, label %25

25:                                               ; preds = %21
  store ptr %23, ptr %19, align 8, !tbaa !54
  %26 = getelementptr inbounds nuw i8, ptr %19, i64 8
  store ptr %12, ptr %26, align 8, !tbaa !55
  store i64 32, ptr %2, align 8, !tbaa !47
  br label %.preheader.i

.preheader.i:                                     ; preds = %.preheader.i, %25
  %indvars.iv.i = phi i64 [ %indvars.iv.next.i, %.preheader.i ], [ 0, %25 ]
  %27 = getelementptr inbounds nuw [32 x i8], ptr %23, i64 0, i64 %indvars.iv.i
  %28 = load i8, ptr %27, align 1, !tbaa !39
  %29 = getelementptr inbounds nuw [32 x i8], ptr %17, i64 0, i64 %indvars.iv.i
  %30 = load i8, ptr %29, align 1, !tbaa !39
  %31 = xor i8 %30, %28
  %32 = getelementptr inbounds nuw i8, ptr %1, i64 %indvars.iv.i
  store i8 %31, ptr %32, align 1, !tbaa !39
  %indvars.iv.next.i = add nuw nsw i64 %indvars.iv.i, 1
  %exitcond.not.i = icmp eq i64 %indvars.iv.next.i, 32
  br i1 %exitcond.not.i, label %xor_derive.exit.thread37, label %.preheader.i, !llvm.loop !56

xor_derive.exit.thread37:                         ; preds = %.preheader.i, %21, %14
  %.02240 = phi i32 [ 0, %14 ], [ 0, %21 ], [ 1, %.preheader.i ]
  %33 = atomicrmw sub ptr %16, i32 1 release, align 4
  %34 = icmp eq i32 %33, 1
  br i1 %34, label %CRYPTO_DOWN_REF.exit.thread.i, label %CRYPTO_DOWN_REF.exit.i

CRYPTO_DOWN_REF.exit.thread.i:                    ; preds = %xor_derive.exit.thread37
  fence acquire
  br label %36

CRYPTO_DOWN_REF.exit.i:                           ; preds = %xor_derive.exit.thread37
  %35 = icmp sgt i32 %33, 1
  br i1 %35, label %xor_freekey.exit, label %36

36:                                               ; preds = %CRYPTO_DOWN_REF.exit.i, %CRYPTO_DOWN_REF.exit.thread.i
  %37 = getelementptr inbounds nuw i8, ptr %12, i64 72
  %38 = load ptr, ptr %37, align 8, !tbaa !46
  tail call void @CRYPTO_free(ptr noundef %38, ptr noundef nonnull @.str.2, i32 noundef 720) #16
  store ptr null, ptr %37, align 8, !tbaa !46
  tail call void @CRYPTO_free(ptr noundef nonnull %12, ptr noundef nonnull @.str.2, i32 noundef 724) #16
  br label %xor_freekey.exit

xor_freekey.exit:                                 ; preds = %11, %CRYPTO_DOWN_REF.exit.i, %36
  %.02143 = phi ptr [ %19, %CRYPTO_DOWN_REF.exit.i ], [ %19, %36 ], [ null, %11 ]
  %.02241 = phi i32 [ %.02240, %CRYPTO_DOWN_REF.exit.i ], [ %.02240, %36 ], [ 0, %11 ]
  tail call void @CRYPTO_free(ptr noundef %.02143, ptr noundef nonnull @.str.2, i32 noundef 522) #16
  br label %39

39:                                               ; preds = %10, %7, %xor_freekey.exit, %9
  %.0 = phi i32 [ 1, %9 ], [ %.02241, %xor_freekey.exit ], [ 0, %7 ], [ 0, %10 ]
  ret i32 %.0
}